target datalayout = "e-m:e-p270:32:32-p271:32:32-p272:64:64-i64:64-i128:128-f80:128-n8:16:32:64-S128"
target triple = "x86_64-pc-linux-gnu"

%"struct.(anonymous namespace)::EMDSolver" = type { i32, i32, ptr, %"class.cv::AutoBuffer", ptr, ptr, ptr, ptr, ptr, ptr, ptr, ptr, ptr, ptr, ptr, ptr, ptr, ptr, float, float, %"class.cv::utils::BufferArea", %"class.cv::utils::BufferArea" }
%"class.cv::AutoBuffer" = type { ptr, i64, [1 x %"struct.(anonymous namespace)::Node2D"] }
%"struct.(anonymous namespace)::Node2D" = type { float, i32, i32, [2 x ptr] }
%"class.cv::utils::BufferArea" = type <{ %"class.std::vector", ptr, i64, i8, [7 x i8] }>
%"class.std::vector" = type { %"struct.std::_Vector_base" }
%"struct.std::_Vector_base" = type { %"struct.std::_Vector_base<cv::utils::BufferArea::Block, std::allocator<cv::utils::BufferArea::Block>>::_Vector_impl" }
%"struct.std::_Vector_base<cv::utils::BufferArea::Block, std::allocator<cv::utils::BufferArea::Block>>::_Vector_impl" = type { %"struct.std::_Vector_base<cv::utils::BufferArea::Block, std::allocator<cv::utils::BufferArea::Block>>::_Vector_impl_data" }
%"struct.std::_Vector_base<cv::utils::BufferArea::Block, std::allocator<cv::utils::BufferArea::Block>>::_Vector_impl_data" = type { ptr, ptr, ptr }

; Function Attrs: noreturn nounwind uwtable
define linkonce_odr hidden void @__clang_call_terminate(ptr noundef %0) #6 comdat {
  %2 = call ptr @__cxa_begin_catch(ptr %0) #11
  call void @_ZSt9terminatev() #12
  unreachable
}

; Function Attrs: mustprogress nounwind uwtable
define internal void @_ZN2cv10AutoBufferIN12_GLOBAL__N_16Node2DELm0EE10deallocateEv(ptr noundef nonnull align 8 dereferenceable(48) %0) #3 align 2 {
  %2 = alloca ptr, align 8
  store ptr %0, ptr %2, align 8
  %3 = load ptr, ptr %2, align 8
  %4 = getelementptr inbounds %"class.cv::AutoBuffer", ptr %3, i32 0, i32 0
  %5 = load ptr, ptr %4, align 8
  %6 = getelementptr inbounds %"class.cv::AutoBuffer", ptr %3, i32 0, i32 2
  %7 = getelementptr inbounds [1 x %"struct.(anonymous namespace)::Node2D"], ptr %6, i64 0, i64 0
  %8 = icmp ne ptr %5, %7
  br i1 %8, label %9, label %19

9:                                                ; preds = %1
  %10 = getelementptr inbounds %"class.cv::AutoBuffer", ptr %3, i32 0, i32 0
  %11 = load ptr, ptr %10, align 8
  %12 = icmp eq ptr %11, null
  br i1 %12, label %14, label %13

13:                                               ; preds = %9
  call void @_ZdaPv(ptr noundef %11) #13
  br label %14

14:                                               ; preds = %13, %9
  %15 = getelementptr inbounds %"class.cv::AutoBuffer", ptr %3, i32 0, i32 2
  %16 = getelementptr inbounds [1 x %"struct.(anonymous namespace)::Node2D"], ptr %15, i64 0, i64 0
  %17 = getelementptr inbounds %"class.cv::AutoBuffer", ptr %3, i32 0, i32 0
  store ptr %16, ptr %17, align 8
  %18 = getelementptr inbounds %"class.cv::AutoBuffer", ptr %3, i32 0, i32 1
  store i64 0, ptr %18, align 8
  br label %19

19:                                               ; preds = %14, %1
  ret void
}

; Function Attrs: mustprogress nounwind uwtable
define internal void @_ZN2cv10AutoBufferIN12_GLOBAL__N_16Node2DELm0EED2Ev(ptr noundef nonnull align 8 dereferenceable(48) %0) unnamed_addr #3 align 2 personality ptr @__gxx_personality_v0 {
  %2 = alloca ptr, align 8
  store ptr %0, ptr %2, align 8
  %3 = load ptr, ptr %2, align 8
  invoke void @_ZN2cv10AutoBufferIN12_GLOBAL__N_16Node2DELm0EE10deallocateEv(ptr noundef nonnull align 8 dereferenceable(48) %3)
          to label %4 unwind label %5

4:                                                ; preds = %1
  ret void

5:                                                ; preds = %1
  %6 = landingpad { ptr, i32 }
          catch ptr null
  %7 = extractvalue { ptr, i32 } %6, 0
  call void @__clang_call_terminate(ptr %7) #12
  unreachable
}

; Function Attrs: mustprogress nounwind uwtable
define internal void @_ZN12_GLOBAL__N_19EMDSolverD2Ev(ptr noundef nonnull align 8 dereferenceable(280) %0) unnamed_addr #3 align 2 {
  %2 = alloca ptr, align 8
  store ptr %0, ptr %2, align 8
  %3 = load ptr, ptr %2, align 8
  %4 = getelementptr inbounds %"struct.(anonymous namespace)::EMDSolver", ptr %3, i32 0, i32 21
  call void @_ZN2cv5utils10BufferAreaD1Ev(ptr noundef nonnull align 8 dereferenceable(41) %4) #11
  %5 = getelementptr inbounds %"struct.(anonymous namespace)::EMDSolver", ptr %3, i32 0, i32 20
  call void @_ZN2cv5utils10BufferAreaD1Ev(ptr noundef nonnull align 8 dereferenceable(41) %5) #11
  %6 = getelementptr inbounds %"struct.(anonymous namespace)::EMDSolver", ptr %3, i32 0, i32 3
  call void @_ZN2cv10AutoBufferIN12_GLOBAL__N_16Node2DELm0EED2Ev(ptr noundef nonnull align 8 dereferenceable(48) %6) #11
  ret void
}