; Function Attrs: mustprogress nounwind uwtable
define internal fastcc void @_ZN12_GLOBAL__N_19EMDSolverD2Ev(ptr noundef nonnull align 8 dereferenceable(280) %0) unnamed_addr #6 align 2 personality ptr @__gxx_personality_v0 {
  %2 = getelementptr inbounds i8, ptr %0, i64 232
  tail call void @_ZN2cv5utils10BufferAreaD1Ev(ptr noundef nonnull align 8 dereferenceable(41) %2) #16
  %3 = getelementptr inbounds i8, ptr %0, i64 184
  tail call void @_ZN2cv5utils10BufferAreaD1Ev(ptr noundef nonnull align 8 dereferenceable(41) %3) #16
  %4 = getelementptr inbounds i8, ptr %0, i64 16
  %5 = load ptr, ptr %4, align 8
  %6 = getelementptr inbounds i8, ptr %0, i64 32
  %.not.i.i = icmp eq ptr %5, %6
  br i1 %.not.i.i, label %_ZN2cv10AutoBufferIN12_GLOBAL__N_16Node2DELm0EED2Ev.exit, label %7

7:                                                ; preds = %1
  %8 = icmp eq ptr %5, null
  br i1 %8, label %10, label %9

9:                                                ; preds = %7
  tail call void @_ZdaPv(ptr noundef nonnull %5) #17
  br label %10

10:                                               ; preds = %9, %7
  store ptr %6, ptr %4, align 8
  %11 = getelementptr inbounds i8, ptr %0, i64 24
  store i64 0, ptr %11, align 8
  br label %_ZN2cv10AutoBufferIN12_GLOBAL__N_16Node2DELm0EED2Ev.exit

_ZN2cv10AutoBufferIN12_GLOBAL__N_16Node2DELm0EED2Ev.exit: ; preds = %1, %10
  ret void
}